(dp0
VServer
p1
Vcmsweb.cern.ch
p2
sVPort
p3
V
p4
sVRequestName
p5
V240725_145215:aloelige_crab_CICADA_Commissioning_July15_July25Runs_25July2024
p6
sVvoRole
p7
VNULL
p8
sVvoGroup
p9
g4
sVinstance
p10
Vprod
p11
sVOriginalConfig
p12
ccopy_reg
_reconstructor
p13
(cWMCore.Configuration
Configuration
p14
c__builtin__
object
p15
Ntp16
Rp17
(dp18
V_internal_sections
p19
(lp20
VGeneral
p21
aVJobType
p22
aVData
p23
aVSite
p24
aVUser
p25
aVDebug
p26
asg21
g13
(cWMCore.Configuration
ConfigSection
p27
g15
Ntp28
Rp29
(dp30
V_internal_documentation
p31
g4
sV_internal_name
p32
g21
sV_internal_settings
p33
c__builtin__
set
p34
((lp35
VrequestName
p36
aVtransferOutputs
p37
aVworkArea
p38
atp39
Rp40
sV_internal_docstrings
p41
(dp42
sV_internal_children
p43
g34
((lp44
tp45
Rp46
sV_internal_parent_ref
p47
NsV_internal_skipChecks
p48
I00
sg36
VCICADA_Commissioning_July15_July25Runs_25July2024
p49
sg38
Vcrab
p50
sg37
I01
sbsg22
g13
(g27
g15
Ntp51
Rp52
(dp53
g31
g4
sg32
g22
sg33
g34
((lp54
VmaxMemoryMB
p55
aVpluginName
p56
aVpsetName
p57
atp58
Rp59
sg41
(dp60
sg43
g34
((lp61
tp62
Rp63
sg47
Nsg48
I00
sg56
VAnalysis
p64
sg57
VL1Ntuples_RAW2DIGI_L1.py
p65
sg55
I4000
sbsg23
g13
(g27
g15
Ntp66
Rp67
(dp68
g31
g4
sg32
g23
sg33
g34
((lp69
Vpublication
p70
aVoutputDatasetTag
p71
aVrunRange
p72
aVinputDBS
p73
aVinputDataset
p74
aVsplitting
p75
aVunitsPerJob
p76
atp77
Rp78
sg41
(dp79
sg43
g34
((lp80
tp81
Rp82
sg47
Nsg48
I00
sg74
V/ZeroBias/Run2024F-v1/RAW
p83
sg73
Vglobal
p84
sg75
VFileBased
p85
sg76
I2
sg72
V383159-383631
p86
sg70
I00
sg71
g49
sbsg24
g13
(g27
g15
Ntp87
Rp88
(dp89
g31
g4
sg32
g24
sg33
g34
((lp90
VstorageSite
p91
atp92
Rp93
sg41
(dp94
sg43
g34
((lp95
tp96
Rp97
sg47
Nsg48
I00
sg91
VT2_US_Wisconsin
p98
sbsg25
g13
(g27
g15
Ntp99
Rp100
(dp101
g31
g4
sg32
g25
sg33
g34
((lp102
tp103
Rp104
sg41
(dp105
sg43
g34
((lp106
tp107
Rp108
sg47
Nsg48
I00
sbsg26
g13
(g27
g15
Ntp109
Rp110
(dp111
g31
g4
sg32
g26
sg33
g34
((lp112
tp113
Rp114
sg41
(dp115
sg43
g34
((lp116
tp117
Rp118
sg47
Nsg48
I00
sbsbs.